target datalayout = "e-m:e-p270:32:32-p271:32:32-p272:64:64-i64:64-i128:128-f80:128-n8:16:32:64-S128"
target triple = "x86_64-pc-linux-gnu"

%struct.gmx_structurefactors = type { i32, ptr, ptr, ptr, ptr, ptr, ptr }

@.str.1 = private unnamed_addr constant [124 x i8] c"generated/home/dtcxzyw/WorkSpace/Projects/compilers/llvm-opt-benchmark/bench/gromacs/gromacs/src/gromacs/gmxana/sfactor.cpp\00", align 1
@.str.55 = private unnamed_addr constant [9 x i8] c"sf_table\00", align 1
@.str.56 = private unnamed_addr constant [12 x i8] c"sf_table[i]\00", align 1

; Function Attrs: mustprogress uwtable
define internal void @_ZL13gmx_snew_implIfEvPKcS1_iRPT_m(ptr noundef %0, ptr noundef %1, i32 noundef %2, ptr noundef nonnull align 8 dereferenceable(8) %3, i64 noundef %4) #0 {
  %6 = alloca ptr, align 8
  %7 = alloca ptr, align 8
  %8 = alloca i32, align 4
  %9 = alloca ptr, align 8
  %10 = alloca i64, align 8
  store ptr %0, ptr %6, align 8
  store ptr %1, ptr %7, align 8
  store i32 %2, ptr %8, align 4
  store ptr %3, ptr %9, align 8
  store i64 %4, ptr %10, align 8
  %11 = load ptr, ptr %6, align 8
  %12 = load ptr, ptr %7, align 8
  %13 = load i32, ptr %8, align 4
  %14 = load i64, ptr %10, align 8
  %15 = call noundef ptr @_Z11save_callocPKcS0_imm(ptr noundef %11, ptr noundef %12, i32 noundef %13, i64 noundef %14, i64 noundef 4)
  %16 = load ptr, ptr %9, align 8
  store ptr %15, ptr %16, align 8
  ret void
}

; Function Attrs: mustprogress uwtable
define internal void @_ZL13gmx_snew_implIPfEvPKcS2_iRPT_m(ptr noundef %0, ptr noundef %1, i32 noundef %2, ptr noundef nonnull align 8 dereferenceable(8) %3, i64 noundef %4) #0 {
  %6 = alloca ptr, align 8
  %7 = alloca ptr, align 8
  %8 = alloca i32, align 4
  %9 = alloca ptr, align 8
  %10 = alloca i64, align 8
  store ptr %0, ptr %6, align 8
  store ptr %1, ptr %7, align 8
  store i32 %2, ptr %8, align 4
  store ptr %3, ptr %9, align 8
  store i64 %4, ptr %10, align 8
  %11 = load ptr, ptr %6, align 8
  %12 = load ptr, ptr %7, align 8
  %13 = load i32, ptr %8, align 4
  %14 = load i64, ptr %10, align 8
  %15 = call noundef ptr @_Z11save_callocPKcS0_imm(ptr noundef %11, ptr noundef %12, i32 noundef %13, i64 noundef %14, i64 noundef 8)
  %16 = load ptr, ptr %9, align 8
  store ptr %15, ptr %16, align 8
  ret void
}

; Function Attrs: mustprogress uwtable
define noundef ptr @_Z26gmx_structurefactors_tableP20gmx_structurefactorsfffi(ptr noundef %0, float noundef %1, float noundef %2, float noundef %3, i32 noundef %4) #0 {
  %6 = alloca ptr, align 8
  %7 = alloca float, align 4
  %8 = alloca float, align 4
  %9 = alloca float, align 4
  %10 = alloca i32, align 4
  %11 = alloca i32, align 4
  %12 = alloca i32, align 4
  %13 = alloca i32, align 4
  %14 = alloca i32, align 4
  %15 = alloca double, align 8
  %16 = alloca double, align 8
  %17 = alloca ptr, align 8
  %18 = alloca ptr, align 8
  store ptr %0, ptr %6, align 8
  store float %1, ptr %7, align 4
  store float %2, ptr %8, align 4
  store float %3, ptr %9, align 4
  store i32 %4, ptr %10, align 4
  %19 = load ptr, ptr %6, align 8
  store ptr %19, ptr %18, align 8
  %20 = load ptr, ptr %18, align 8
  %21 = getelementptr inbounds %struct.gmx_structurefactors, ptr %20, i32 0, i32 0
  %22 = load i32, ptr %21, align 8
  store i32 %22, ptr %11, align 4
  %23 = load i32, ptr %11, align 4
  %24 = add nsw i32 %23, 3
  store i32 %24, ptr %12, align 4
  %25 = load i32, ptr %12, align 4
  %26 = sext i32 %25 to i64
  call void @_ZL13gmx_snew_implIPfEvPKcS2_iRPT_m(ptr noundef @.str.55, ptr noundef @.str.1, i32 noundef 667, ptr noundef nonnull align 8 dereferenceable(8) %17, i64 noundef %26)
  store i32 0, ptr %13, align 4
  br label %27

27:                                               ; preds = %97, %5
  %28 = load i32, ptr %13, align 4
  %29 = load i32, ptr %12, align 4
  %30 = icmp slt i32 %28, %29
  br i1 %30, label %31, label %100

31:                                               ; preds = %27
  %32 = load ptr, ptr %17, align 8
  %33 = load i32, ptr %13, align 4
  %34 = sext i32 %33 to i64
  %35 = getelementptr inbounds ptr, ptr %32, i64 %34
  %36 = load i32, ptr %10, align 4
  %37 = sext i32 %36 to i64
  call void @_ZL13gmx_snew_implIfEvPKcS1_iRPT_m(ptr noundef @.str.56, ptr noundef @.str.1, i32 noundef 670, ptr noundef nonnull align 8 dereferenceable(8) %35, i64 noundef %37)
  store i32 0, ptr %14, align 4
  br label %38

38:                                               ; preds = %93, %31
  %39 = load i32, ptr %14, align 4
  %40 = load i32, ptr %10, align 4
  %41 = icmp slt i32 %39, %40
  br i1 %41, label %42, label %96

42:                                               ; preds = %38
  %43 = load i32, ptr %14, align 4
  %44 = sitofp i32 %43 to float
  %45 = load float, ptr %8, align 4
  %46 = fmul float %44, %45
  %47 = fpext float %46 to double
  store double %47, ptr %15, align 8
  %48 = load double, ptr %15, align 8
  %49 = load float, ptr %7, align 4
  %50 = fpext float %49 to double
  %51 = fmul double 2.000000e+00, %50
  %52 = fdiv double %48, %51
  store double %52, ptr %16, align 8
  %53 = load i32, ptr %13, align 4
  %54 = load i32, ptr %11, align 4
  %55 = icmp slt i32 %53, %54
  br i1 %55, label %56, label %72

56:                                               ; preds = %42
  %57 = load ptr, ptr %6, align 8
  %58 = load i32, ptr %13, align 4
  %59 = load float, ptr %9, align 4
  %60 = fpext float %59 to double
  %61 = load double, ptr %16, align 8
  %62 = call noundef double @_Z4CMSFP20gmx_structurefactorsiidd(ptr noundef %57, i32 noundef %58, i32 noundef 0, double noundef %60, double noundef %61)
  %63 = fptrunc double %62 to float
  %64 = load ptr, ptr %17, align 8
  %65 = load i32, ptr %13, align 4
  %66 = sext i32 %65 to i64
  %67 = getelementptr inbounds ptr, ptr %64, i64 %66
  %68 = load ptr, ptr %67, align 8
  %69 = load i32, ptr %14, align 4
  %70 = sext i32 %69 to i64
  %71 = getelementptr inbounds float, ptr %68, i64 %70
  store float %63, ptr %71, align 4
  br label %92

72:                                               ; preds = %42
  %73 = load ptr, ptr %6, align 8
  %74 = load i32, ptr %13, align 4
  %75 = load i32, ptr %13, align 4
  %76 = load i32, ptr %11, align 4
  %77 = sub nsw i32 %75, %76
  %78 = add nsw i32 %77, 1
  %79 = load float, ptr %9, align 4
  %80 = fpext float %79 to double
  %81 = load double, ptr %16, align 8
  %82 = call noundef double @_Z4CMSFP20gmx_structurefactorsiidd(ptr noundef %73, i32 noundef %74, i32 noundef %78, double noundef %80, double noundef %81)
  %83 = fptrunc double %82 to float
  %84 = load ptr, ptr %17, align 8
  %85 = load i32, ptr %13, align 4
  %86 = sext i32 %85 to i64
  %87 = getelementptr inbounds ptr, ptr %84, i64 %86
  %88 = load ptr, ptr %87, align 8
  %89 = load i32, ptr %14, align 4
  %90 = sext i32 %89 to i64
  %91 = getelementptr inbounds float, ptr %88, i64 %90
  store float %83, ptr %91, align 4
  br label %92

92:                                               ; preds = %72, %56
  br label %93

93:                                               ; preds = %92
  %94 = load i32, ptr %14, align 4
  %95 = add nsw i32 %94, 1
  store i32 %95, ptr %14, align 4
  br label %38, !llvm.loop !35

96:                                               ; preds = %38
  br label %97

97:                                               ; preds = %96
  %98 = load i32, ptr %13, align 4
  %99 = add nsw i32 %98, 1
  store i32 %99, ptr %13, align 4
  br label %27, !llvm.loop !36

100:                                              ; preds = %27
  %101 = load ptr, ptr %17, align 8
  ret ptr %101
}