; Function Attrs: mustprogress uwtable
define noundef ptr @_Z26gmx_structurefactors_tableP20gmx_structurefactorsfffi(ptr noundef %0, float noundef %1, float noundef %2, float noundef %3, i32 noundef %4) local_unnamed_addr #0 {
  %6 = load i32, ptr %0, align 8
  %7 = add nsw i32 %6, 3
  %8 = sext i32 %7 to i64
  %9 = tail call noundef ptr @_Z11save_callocPKcS0_imm(ptr noundef nonnull @.str.55, ptr noundef nonnull @.str.1, i32 noundef 667, i64 noundef %8, i64 noundef 8)
  %10 = icmp sgt i32 %6, -3
  br i1 %10, label %.lr.ph40, label %._crit_edge41

.lr.ph40:                                         ; preds = %5
  %11 = sext i32 %4 to i64
  %12 = icmp sgt i32 %4, 0
  %13 = fpext float %1 to double
  %14 = fmul double %13, 2.000000e+00
  %15 = fpext float %3 to double
  %16 = fmul double %15, 1.000000e+01
  %17 = fmul double %16, %16
  %18 = getelementptr inbounds i8, ptr %0, i64 24
  %19 = getelementptr inbounds i8, ptr %0, i64 32
  %20 = getelementptr inbounds i8, ptr %0, i64 40
  br i1 %12, label %.lr.ph.us.preheader, label %.lr.ph40.split.preheader

.lr.ph40.split.preheader:                         ; preds = %.lr.ph40
  %wide.trip.count = zext nneg i32 %7 to i64
  br label %.lr.ph40.split

.lr.ph.us.preheader:                              ; preds = %.lr.ph40
  %21 = sext i32 %6 to i64
  %wide.trip.count62 = zext nneg i32 %7 to i64
  %wide.trip.count51 = zext nneg i32 %4 to i64
  %wide.trip.count56 = zext nneg i32 %4 to i64
  br label %.lr.ph.us

.lr.ph.us:                                        ; preds = %.lr.ph.us.preheader, %._crit_edge.us
  %indvars.iv58 = phi i64 [ 0, %.lr.ph.us.preheader ], [ %indvars.iv.next59, %._crit_edge.us ]
  %22 = getelementptr inbounds ptr, ptr %9, i64 %indvars.iv58
  %23 = tail call noundef ptr @_Z11save_callocPKcS0_imm(ptr noundef nonnull @.str.56, ptr noundef nonnull @.str.1, i32 noundef 670, i64 noundef %11, i64 noundef 4)
  store ptr %23, ptr %22, align 8
  %24 = icmp slt i64 %indvars.iv58, %21
  %25 = trunc nuw nsw i64 %indvars.iv58 to i32
  %reass.sub = sub i32 %25, %6
  %26 = add i32 %reass.sub, 1
  br i1 %24, label %.lr.ph.split.us.us, label %.lr.ph.split.us44

.lr.ph.split.us44:                                ; preds = %.lr.ph.us, %.lr.ph.split.us44
  %indvars.iv48 = phi i64 [ %indvars.iv.next49, %.lr.ph.split.us44 ], [ 0, %.lr.ph.us ]
  %27 = trunc nuw nsw i64 %indvars.iv48 to i32
  %28 = uitofp nneg i32 %27 to float
  %29 = fmul float %28, %2
  %30 = fpext float %29 to double
  %31 = fdiv double %30, %14
  %32 = tail call noundef double @_Z4CMSFP20gmx_structurefactorsiidd(ptr noundef nonnull %0, i32 noundef %25, i32 noundef %26, double noundef %15, double noundef %31)
  %33 = fptrunc double %32 to float
  %34 = load ptr, ptr %22, align 8
  %35 = getelementptr inbounds float, ptr %34, i64 %indvars.iv48
  store float %33, ptr %35, align 4
  %indvars.iv.next49 = add nuw nsw i64 %indvars.iv48, 1
  %exitcond52.not = icmp eq i64 %indvars.iv.next49, %wide.trip.count51
  br i1 %exitcond52.not, label %._crit_edge.us, label %.lr.ph.split.us44, !llvm.loop !36

._crit_edge.us:                                   ; preds = %.lr.ph.split.us44, %_Z4CMSFP20gmx_structurefactorsiidd.exit.us.us
  %indvars.iv.next59 = add nuw nsw i64 %indvars.iv58, 1
  %exitcond63.not = icmp eq i64 %indvars.iv.next59, %wide.trip.count62
  br i1 %exitcond63.not, label %._crit_edge41, label %.lr.ph.us, !llvm.loop !37

.lr.ph.split.us.us:                               ; preds = %.lr.ph.us, %_Z4CMSFP20gmx_structurefactorsiidd.exit.us.us
  %indvars.iv53 = phi i64 [ %indvars.iv.next54, %_Z4CMSFP20gmx_structurefactorsiidd.exit.us.us ], [ 0, %.lr.ph.us ]
  %36 = trunc nuw nsw i64 %indvars.iv53 to i32
  %37 = uitofp nneg i32 %36 to float
  %38 = fmul float %37, %2
  %39 = fpext float %38 to double
  %40 = tail call noundef ptr @_Z11save_callocPKcS0_imm(ptr noundef nonnull @.str.32, ptr noundef nonnull @.str.1, i32 noundef 621, i64 noundef 4, i64 noundef 4)
  %41 = tail call noundef ptr @_Z11save_callocPKcS0_imm(ptr noundef nonnull @.str.33, ptr noundef nonnull @.str.1, i32 noundef 622, i64 noundef 4, i64 noundef 4)
  br label %42

42:                                               ; preds = %42, %.lr.ph.split.us.us
  %indvars.iv.i.i.us.us = phi i64 [ 0, %.lr.ph.split.us.us ], [ %indvars.iv.next.i.i.us.us, %42 ]
  %43 = load ptr, ptr %18, align 8
  %44 = getelementptr inbounds ptr, ptr %43, i64 %indvars.iv58
  %45 = load ptr, ptr %44, align 8
  %46 = getelementptr inbounds float, ptr %45, i64 %indvars.iv.i.i.us.us
  %47 = load float, ptr %46, align 4
  %48 = getelementptr inbounds float, ptr %40, i64 %indvars.iv.i.i.us.us
  store float %47, ptr %48, align 4
  %49 = load ptr, ptr %19, align 8
  %50 = getelementptr inbounds ptr, ptr %49, i64 %indvars.iv58
  %51 = load ptr, ptr %50, align 8
  %52 = getelementptr inbounds float, ptr %51, i64 %indvars.iv.i.i.us.us
  %53 = load float, ptr %52, align 4
  %54 = getelementptr inbounds float, ptr %41, i64 %indvars.iv.i.i.us.us
  store float %53, ptr %54, align 4
  %indvars.iv.next.i.i.us.us = add nuw nsw i64 %indvars.iv.i.i.us.us, 1
  %exitcond.not.i.i.us.us = icmp eq i64 %indvars.iv.next.i.i.us.us, 4
  br i1 %exitcond.not.i.i.us.us, label %_Z27gmx_structurefactors_get_sfP20gmx_structurefactorsiPfS1_S1_.exit.i.us.us, label %42, !llvm.loop !24

_Z27gmx_structurefactors_get_sfP20gmx_structurefactorsiPfS1_S1_.exit.i.us.us: ; preds = %42
  %55 = fdiv double %39, %14
  %56 = fmul double %55, %55
  %57 = fdiv double %56, %17
  %58 = load ptr, ptr %20, align 8
  %59 = getelementptr inbounds float, ptr %58, i64 %indvars.iv58
  %60 = load float, ptr %59, align 4
  %61 = fpext float %60 to double
  br label %62

62:                                               ; preds = %62, %_Z27gmx_structurefactors_get_sfP20gmx_structurefactorsiPfS1_S1_.exit.i.us.us
  %indvars.iv.i.us.us = phi i64 [ 0, %_Z27gmx_structurefactors_get_sfP20gmx_structurefactorsiPfS1_S1_.exit.i.us.us ], [ %indvars.iv.next.i.us.us, %62 ]
  %.02026.i.us.us = phi double [ %61, %_Z27gmx_structurefactors_get_sfP20gmx_structurefactorsiPfS1_S1_.exit.i.us.us ], [ %72, %62 ]
  %63 = getelementptr inbounds float, ptr %40, i64 %indvars.iv.i.us.us
  %64 = load float, ptr %63, align 4
  %65 = fpext float %64 to double
  %66 = getelementptr inbounds float, ptr %41, i64 %indvars.iv.i.us.us
  %67 = load float, ptr %66, align 4
  %68 = fneg float %67
  %69 = fpext float %68 to double
  %70 = fmul double %57, %69
  %71 = tail call double @exp(double noundef %70) #15
  %72 = tail call double @llvm.fmuladd.f64(double %65, double %71, double %.02026.i.us.us)
  %indvars.iv.next.i.us.us = add nuw nsw i64 %indvars.iv.i.us.us, 1
  %exitcond.not.i.us.us = icmp eq i64 %indvars.iv.next.i.us.us, 4
  br i1 %exitcond.not.i.us.us, label %_Z4CMSFP20gmx_structurefactorsiidd.exit.us.us, label %62, !llvm.loop !35

_Z4CMSFP20gmx_structurefactorsiidd.exit.us.us:    ; preds = %62
  %73 = fptrunc double %72 to float
  %74 = load ptr, ptr %22, align 8
  %75 = getelementptr inbounds float, ptr %74, i64 %indvars.iv53
  store float %73, ptr %75, align 4
  %indvars.iv.next54 = add nuw nsw i64 %indvars.iv53, 1
  %exitcond57.not = icmp eq i64 %indvars.iv.next54, %wide.trip.count56
  br i1 %exitcond57.not, label %._crit_edge.us, label %.lr.ph.split.us.us, !llvm.loop !36

.lr.ph40.split:                                   ; preds = %.lr.ph40.split.preheader, %.lr.ph40.split
  %indvars.iv = phi i64 [ 0, %.lr.ph40.split.preheader ], [ %indvars.iv.next, %.lr.ph40.split ]
  %76 = getelementptr inbounds ptr, ptr %9, i64 %indvars.iv
  %77 = tail call noundef ptr @_Z11save_callocPKcS0_imm(ptr noundef nonnull @.str.56, ptr noundef nonnull @.str.1, i32 noundef 670, i64 noundef %11, i64 noundef 4)
  store ptr %77, ptr %76, align 8
  %indvars.iv.next = add nuw nsw i64 %indvars.iv, 1
  %exitcond.not = icmp eq i64 %indvars.iv.next, %wide.trip.count
  br i1 %exitcond.not, label %._crit_edge41, label %.lr.ph40.split, !llvm.loop !37

._crit_edge41:                                    ; preds = %.lr.ph40.split, %._crit_edge.us, %5
  ret ptr %9
}